#include <math.h>
#include <stdio.h>
#include <stdlib.h>
#include <string.h>
#include <iostream>
using namespace std;

// 
//	?????	????????
//	?????	??n???????????????????????????????????????????????
//	?????	?  ? ? ? ? ? 1000012733 ?
//	?????	2010 ? 10 ? 31 ?
//
int main()
{
	int n, num, i, j = 0, k;	//?????????????
	int a [ 91 ] = { 0 };	//????a[91]?????????num?????????num????10-100?????????????91??????
	cin >> n;		//??????????
	int b [ 20000 ] = { 0 };	//????b[20000]??????????????????????????
	for ( i = 0; i < n; i ++ )	//?????????????n????????n???
	{
		cin >> num;	//??????num
		if ( a [ num - 10 ] == 0 )	//?????????a??????0???????????
		{
			b [ j ] = num;	//???b?????????????????????num?????
            a [ num - 10 ] ++;	//??a?????????1
			j ++;	//??b????????num?j?????1???????????????num????b?????
		}
	}
	cout << b [ 0 ];	//??b ???????????
	for ( k = 1; k <= n; k ++ )
	{
		if ( b [ k ] == 0 ) break;	//??????b ????????????????????????????????????
		else cout << " " << b [ k ];	//????????????????????????b[k]
	}
	return 0;
}